; Function Attrs: mustprogress nofree norecurse nosync nounwind willreturn memory(readwrite, inaccessiblemem: none) uwtable
define dso_local { i64, ptr } @jv_object_iter_value(i64 %0, ptr readonly captures(none) %1, i32 noundef %2) local_unnamed_addr #15 {
  %4 = icmp eq i32 %2, -1
  %5 = getelementptr inbounds nuw i8, ptr %1, i64 8
  %6 = sext i32 %2 to i64
  %7 = getelementptr inbounds [0 x %struct.object_slot], ptr %5, i64 0, i64 %6
  %.0.i = select i1 %4, ptr null, ptr %7
  %8 = getelementptr inbounds nuw i8, ptr %.0.i, i64 24
  %9 = load i64, ptr %8, align 8
  %10 = getelementptr inbounds nuw i8, ptr %.0.i, i64 32
  %11 = load ptr, ptr %10, align 8
  %12 = and i64 %9, 128
  %.not.i = icmp eq i64 %12, 0
  br i1 %.not.i, label %jv_copy.exit, label %13

13:                                               ; preds = %3
  %14 = load i32, ptr %11, align 4, !tbaa !9
  %15 = add nsw i32 %14, 1
  store i32 %15, ptr %11, align 4, !tbaa !9
  br label %jv_copy.exit

jv_copy.exit:                                     ; preds = %3, %13
  %.fca.0.insert.i = insertvalue { i64, ptr } poison, i64 %9, 0
  %.fca.1.insert.i = insertvalue { i64, ptr } %.fca.0.insert.i, ptr %11, 1
  ret { i64, ptr } %.fca.1.insert.i
}